target datalayout = "e-m:e-p270:32:32-p271:32:32-p272:64:64-i64:64-i128:128-f80:128-n8:16:32:64-S128"
target triple = "x86_64-pc-linux-gnu"

; Function Attrs: nounwind sspstrong uwtable
define internal i32 @fnmatch(ptr noundef %0, ptr noundef %1, ptr noundef %2, i32 noundef %3) #0 {
  %5 = alloca i32, align 4
  %6 = alloca ptr, align 8
  %7 = alloca ptr, align 8
  %8 = alloca ptr, align 8
  %9 = alloca i32, align 4
  %10 = alloca ptr, align 8
  %11 = alloca ptr, align 8
  %12 = alloca ptr, align 8
  %13 = alloca i32, align 4
  %14 = alloca i32, align 4
  %15 = alloca ptr, align 8
  %16 = alloca ptr, align 8
  %17 = alloca i32, align 4
  store ptr %0, ptr %6, align 8, !tbaa !11
  store ptr %1, ptr %7, align 8, !tbaa !19
  store ptr %2, ptr %8, align 8, !tbaa !11
  store i32 %3, ptr %9, align 4, !tbaa !21
  call void @llvm.lifetime.start.p0(i64 8, ptr %10) #26
  %18 = load ptr, ptr %6, align 8, !tbaa !11
  store ptr %18, ptr %10, align 8, !tbaa !11
  call void @llvm.lifetime.start.p0(i64 8, ptr %11) #26
  %19 = load ptr, ptr %8, align 8, !tbaa !11
  store ptr %19, ptr %11, align 8, !tbaa !11
  call void @llvm.lifetime.start.p0(i64 8, ptr %12) #26
  %20 = load ptr, ptr %11, align 8, !tbaa !11
  %21 = load ptr, ptr %8, align 8, !tbaa !11
  %22 = call i64 @strlen(ptr noundef %21) #27
  %23 = getelementptr i8, ptr %20, i64 %22
  store ptr %23, ptr %12, align 8, !tbaa !11
  call void @llvm.lifetime.start.p0(i64 4, ptr %13) #26
  %24 = load i32, ptr %9, align 4, !tbaa !21
  %25 = and i32 %24, 4
  %26 = icmp ne i32 %25, 0
  %27 = xor i1 %26, true
  %28 = zext i1 %27 to i32
  store i32 %28, ptr %13, align 4, !tbaa !21
  call void @llvm.lifetime.start.p0(i64 4, ptr %14) #26
  %29 = load i32, ptr %9, align 4, !tbaa !21
  %30 = and i32 %29, 2
  store i32 %30, ptr %14, align 4, !tbaa !21
  call void @llvm.lifetime.start.p0(i64 8, ptr %15) #26
  store ptr null, ptr %15, align 8, !tbaa !11
  call void @llvm.lifetime.start.p0(i64 8, ptr %16) #26
  store ptr null, ptr %16, align 8, !tbaa !11
  %31 = load i32, ptr %14, align 4, !tbaa !21
  %32 = icmp ne i32 %31, 0
  br i1 %32, label %33, label %177

33:                                               ; preds = %4
  br label %34

34:                                               ; preds = %170, %116, %33
  br label %35

35:                                               ; preds = %34
  %36 = load ptr, ptr %10, align 8, !tbaa !11
  %37 = getelementptr i8, ptr %36, i64 0
  %38 = load i8, ptr %37, align 1, !tbaa !26
  %39 = sext i8 %38 to i32
  %40 = icmp eq i32 %39, 42
  br i1 %40, label %41, label %80

41:                                               ; preds = %35
  %42 = load ptr, ptr %10, align 8, !tbaa !11
  %43 = getelementptr i8, ptr %42, i64 1
  %44 = load i8, ptr %43, align 1, !tbaa !26
  %45 = sext i8 %44 to i32
  %46 = icmp eq i32 %45, 42
  br i1 %46, label %47, label %80

47:                                               ; preds = %41
  %48 = load ptr, ptr %10, align 8, !tbaa !11
  %49 = getelementptr i8, ptr %48, i64 2
  %50 = load i8, ptr %49, align 1, !tbaa !26
  %51 = sext i8 %50 to i32
  %52 = icmp eq i32 %51, 47
  br i1 %52, label %53, label %80

53:                                               ; preds = %47
  br label %54

54:                                               ; preds = %75, %53
  %55 = load ptr, ptr %10, align 8, !tbaa !11
  %56 = getelementptr i8, ptr %55, i64 3
  store ptr %56, ptr %10, align 8, !tbaa !11
  br label %57

57:                                               ; preds = %54
  %58 = load ptr, ptr %10, align 8, !tbaa !11
  %59 = getelementptr i8, ptr %58, i64 0
  %60 = load i8, ptr %59, align 1, !tbaa !26
  %61 = sext i8 %60 to i32
  %62 = icmp eq i32 %61, 42
  br i1 %62, label %63, label %75

63:                                               ; preds = %57
  %64 = load ptr, ptr %10, align 8, !tbaa !11
  %65 = getelementptr i8, ptr %64, i64 1
  %66 = load i8, ptr %65, align 1, !tbaa !26
  %67 = sext i8 %66 to i32
  %68 = icmp eq i32 %67, 42
  br i1 %68, label %69, label %75

69:                                               ; preds = %63
  %70 = load ptr, ptr %10, align 8, !tbaa !11
  %71 = getelementptr i8, ptr %70, i64 2
  %72 = load i8, ptr %71, align 1, !tbaa !26
  %73 = sext i8 %72 to i32
  %74 = icmp eq i32 %73, 47
  br label %75

75:                                               ; preds = %69, %63, %57
  %76 = phi i1 [ false, %63 ], [ false, %57 ], [ %74, %69 ]
  br i1 %76, label %54, label %77, !llvm.loop !149

77:                                               ; preds = %75
  %78 = load ptr, ptr %10, align 8, !tbaa !11
  store ptr %78, ptr %15, align 8, !tbaa !11
  %79 = load ptr, ptr %11, align 8, !tbaa !11
  store ptr %79, ptr %16, align 8, !tbaa !11
  br label %80

80:                                               ; preds = %77, %47, %41, %35
  %81 = load i32, ptr %9, align 4, !tbaa !21
  %82 = load ptr, ptr %7, align 8, !tbaa !19
  %83 = call i32 @fnmatch_helper(ptr noundef %10, ptr noundef %11, i32 noundef %81, ptr noundef %82)
  %84 = icmp eq i32 %83, 0
  br i1 %84, label %85, label %131

85:                                               ; preds = %80
  br label %86

86:                                               ; preds = %98, %85
  %87 = load ptr, ptr %11, align 8, !tbaa !11
  %88 = load i8, ptr %87, align 1, !tbaa !26
  %89 = sext i8 %88 to i32
  %90 = icmp ne i32 %89, 0
  br i1 %90, label %91, label %96

91:                                               ; preds = %86
  %92 = load ptr, ptr %11, align 8, !tbaa !11
  %93 = load i8, ptr %92, align 1, !tbaa !26
  %94 = sext i8 %93 to i32
  %95 = icmp ne i32 %94, 47
  br label %96

96:                                               ; preds = %91, %86
  %97 = phi i1 [ false, %86 ], [ %95, %91 ]
  br i1 %97, label %98, label %106

98:                                               ; preds = %96
  %99 = load ptr, ptr %11, align 8, !tbaa !11
  %100 = load ptr, ptr %11, align 8, !tbaa !11
  %101 = load ptr, ptr %12, align 8, !tbaa !11
  %102 = load ptr, ptr %7, align 8, !tbaa !19
  %103 = call i32 @rb_enc_mbclen(ptr noundef %100, ptr noundef %101, ptr noundef %102)
  %104 = sext i32 %103 to i64
  %105 = getelementptr i8, ptr %99, i64 %104
  store ptr %105, ptr %11, align 8, !tbaa !11
  br label %86, !llvm.loop !150

106:                                              ; preds = %96
  %107 = load ptr, ptr %10, align 8, !tbaa !11
  %108 = load i8, ptr %107, align 1, !tbaa !26
  %109 = sext i8 %108 to i32
  %110 = icmp ne i32 %109, 0
  br i1 %110, label %111, label %121

111:                                              ; preds = %106
  %112 = load ptr, ptr %11, align 8, !tbaa !11
  %113 = load i8, ptr %112, align 1, !tbaa !26
  %114 = sext i8 %113 to i32
  %115 = icmp ne i32 %114, 0
  br i1 %115, label %116, label %121

116:                                              ; preds = %111
  %117 = load ptr, ptr %10, align 8, !tbaa !11
  %118 = getelementptr i8, ptr %117, i32 1
  store ptr %118, ptr %10, align 8, !tbaa !11
  %119 = load ptr, ptr %11, align 8, !tbaa !11
  %120 = getelementptr i8, ptr %119, i32 1
  store ptr %120, ptr %11, align 8, !tbaa !11
  br label %34

121:                                              ; preds = %111, %106
  %122 = load ptr, ptr %10, align 8, !tbaa !11
  %123 = load i8, ptr %122, align 1, !tbaa !26
  %124 = icmp ne i8 %123, 0
  br i1 %124, label %130, label %125

125:                                              ; preds = %121
  %126 = load ptr, ptr %11, align 8, !tbaa !11
  %127 = load i8, ptr %126, align 1, !tbaa !26
  %128 = icmp ne i8 %127, 0
  br i1 %128, label %130, label %129

129:                                              ; preds = %125
  store i32 0, ptr %5, align 4
  store i32 1, ptr %17, align 4
  br label %181

130:                                              ; preds = %125, %121
  br label %131

131:                                              ; preds = %130, %80
  %132 = load ptr, ptr %15, align 8, !tbaa !11
  %133 = icmp ne ptr %132, null
  br i1 %133, label %134, label %176

134:                                              ; preds = %131
  %135 = load ptr, ptr %16, align 8, !tbaa !11
  %136 = icmp ne ptr %135, null
  br i1 %136, label %137, label %176

137:                                              ; preds = %134
  %138 = load i32, ptr %13, align 4, !tbaa !21
  %139 = icmp ne i32 %138, 0
  br i1 %139, label %140, label %145

140:                                              ; preds = %137
  %141 = load ptr, ptr %16, align 8, !tbaa !11
  %142 = load i8, ptr %141, align 1, !tbaa !26
  %143 = sext i8 %142 to i32
  %144 = icmp eq i32 %143, 46
  br i1 %144, label %176, label %145

145:                                              ; preds = %140, %137
  br label %146

146:                                              ; preds = %158, %145
  %147 = load ptr, ptr %16, align 8, !tbaa !11
  %148 = load i8, ptr %147, align 1, !tbaa !26
  %149 = sext i8 %148 to i32
  %150 = icmp ne i32 %149, 0
  br i1 %150, label %151, label %156

151:                                              ; preds = %146
  %152 = load ptr, ptr %16, align 8, !tbaa !11
  %153 = load i8, ptr %152, align 1, !tbaa !26
  %154 = sext i8 %153 to i32
  %155 = icmp ne i32 %154, 47
  br label %156

156:                                              ; preds = %151, %146
  %157 = phi i1 [ false, %146 ], [ %155, %151 ]
  br i1 %157, label %158, label %166

158:                                              ; preds = %156
  %159 = load ptr, ptr %16, align 8, !tbaa !11
  %160 = load ptr, ptr %16, align 8, !tbaa !11
  %161 = load ptr, ptr %12, align 8, !tbaa !11
  %162 = load ptr, ptr %7, align 8, !tbaa !19
  %163 = call i32 @rb_enc_mbclen(ptr noundef %160, ptr noundef %161, ptr noundef %162)
  %164 = sext i32 %163 to i64
  %165 = getelementptr i8, ptr %159, i64 %164
  store ptr %165, ptr %16, align 8, !tbaa !11
  br label %146, !llvm.loop !151

166:                                              ; preds = %156
  %167 = load ptr, ptr %16, align 8, !tbaa !11
  %168 = load i8, ptr %167, align 1, !tbaa !26
  %169 = icmp ne i8 %168, 0
  br i1 %169, label %170, label %175

170:                                              ; preds = %166
  %171 = load ptr, ptr %15, align 8, !tbaa !11
  store ptr %171, ptr %10, align 8, !tbaa !11
  %172 = load ptr, ptr %16, align 8, !tbaa !11
  %173 = getelementptr i8, ptr %172, i32 1
  store ptr %173, ptr %16, align 8, !tbaa !11
  %174 = load ptr, ptr %16, align 8, !tbaa !11
  store ptr %174, ptr %11, align 8, !tbaa !11
  br label %34

175:                                              ; preds = %166
  br label %176

176:                                              ; preds = %175, %140, %134, %131
  store i32 1, ptr %5, align 4
  store i32 1, ptr %17, align 4
  br label %181

177:                                              ; preds = %4
  %178 = load i32, ptr %9, align 4, !tbaa !21
  %179 = load ptr, ptr %7, align 8, !tbaa !19
  %180 = call i32 @fnmatch_helper(ptr noundef %10, ptr noundef %11, i32 noundef %178, ptr noundef %179)
  store i32 %180, ptr %5, align 4
  store i32 1, ptr %17, align 4
  br label %181

181:                                              ; preds = %177, %176, %129
  call void @llvm.lifetime.end.p0(i64 8, ptr %16) #26
  call void @llvm.lifetime.end.p0(i64 8, ptr %15) #26
  call void @llvm.lifetime.end.p0(i64 4, ptr %14) #26
  call void @llvm.lifetime.end.p0(i64 4, ptr %13) #26
  call void @llvm.lifetime.end.p0(i64 8, ptr %12) #26
  call void @llvm.lifetime.end.p0(i64 8, ptr %11) #26
  call void @llvm.lifetime.end.p0(i64 8, ptr %10) #26
  %182 = load i32, ptr %5, align 4
  ret i32 %182
}