; Function Attrs: nounwind sspstrong uwtable
define internal fastcc range(i32 0, 2) i32 @fnmatch(ptr noundef %0, ptr noundef %1, ptr noundef %2, i32 noundef %3) unnamed_addr #0 {
  %5 = alloca ptr, align 8
  %6 = alloca ptr, align 8
  call void @llvm.lifetime.start.p0(i64 8, ptr nonnull %5) #22
  store ptr %0, ptr %5, align 8, !tbaa !177
  call void @llvm.lifetime.start.p0(i64 8, ptr nonnull %6) #22
  store ptr %2, ptr %6, align 8, !tbaa !177
  %7 = tail call i64 @strlen(ptr noundef nonnull dereferenceable(1) %2) #23
  %8 = getelementptr i8, ptr %2, i64 %7
  %9 = and i32 %3, 4
  %.not = icmp eq i32 %9, 0
  %10 = and i32 %3, 2
  %.not36 = icmp eq i32 %10, 0
  br i1 %.not36, label %67, label %.preheader47

.preheader47:                                     ; preds = %4, %.backedge
  %11 = phi ptr [ %storemerge, %.backedge ], [ %2, %4 ]
  %.promoted = phi ptr [ %50, %.backedge ], [ %0, %4 ]
  %.031 = phi ptr [ %.132, %.backedge ], [ null, %4 ]
  %.0 = phi ptr [ %.0.be, %.backedge ], [ null, %4 ]
  %12 = load i8, ptr %.promoted, align 1, !tbaa !19
  %13 = icmp eq i8 %12, 42
  br i1 %13, label %14, label %34

14:                                               ; preds = %.preheader47
  %15 = getelementptr i8, ptr %.promoted, i64 1
  %16 = load i8, ptr %15, align 1, !tbaa !19
  %17 = icmp eq i8 %16, 42
  br i1 %17, label %18, label %34

18:                                               ; preds = %14
  %19 = getelementptr i8, ptr %.promoted, i64 2
  %20 = load i8, ptr %19, align 1, !tbaa !19
  %21 = icmp eq i8 %20, 47
  br i1 %21, label %.preheader46, label %34

.preheader46:                                     ; preds = %18, %30
  %22 = phi ptr [ %23, %30 ], [ %.promoted, %18 ]
  %23 = getelementptr i8, ptr %22, i64 3
  %24 = load i8, ptr %23, align 1, !tbaa !19
  %25 = icmp eq i8 %24, 42
  br i1 %25, label %26, label %.critedge

26:                                               ; preds = %.preheader46
  %27 = getelementptr i8, ptr %22, i64 4
  %28 = load i8, ptr %27, align 1, !tbaa !19
  %29 = icmp eq i8 %28, 42
  br i1 %29, label %30, label %.critedge

30:                                               ; preds = %26
  %31 = getelementptr i8, ptr %22, i64 5
  %32 = load i8, ptr %31, align 1, !tbaa !19
  %33 = icmp eq i8 %32, 47
  br i1 %33, label %.preheader46, label %.critedge, !llvm.loop !178

.critedge:                                        ; preds = %26, %.preheader46, %30
  store ptr %23, ptr %5, align 8, !tbaa !177
  br label %34

34:                                               ; preds = %.critedge, %18, %14, %.preheader47
  %.132 = phi ptr [ %23, %.critedge ], [ %.031, %18 ], [ %.031, %14 ], [ %.031, %.preheader47 ]
  %.1 = phi ptr [ %11, %.critedge ], [ %.0, %18 ], [ %.0, %14 ], [ %.0, %.preheader47 ]
  %35 = call fastcc i32 @fnmatch_helper(ptr noundef %5, ptr noundef %6, i32 noundef %3, ptr noundef %1)
  %36 = icmp eq i32 %35, 0
  br i1 %36, label %.preheader, label %52

.preheader:                                       ; preds = %34
  %.promoted53 = load ptr, ptr %6, align 8, !tbaa !177
  br label %37

37:                                               ; preds = %.preheader, %40
  %38 = phi ptr [ %.promoted53, %.preheader ], [ %43, %40 ]
  %39 = load i8, ptr %38, align 1, !tbaa !19
  switch i8 %39, label %40 [
    i8 0, label %.critedge2
    i8 47, label %.critedge2
  ]

40:                                               ; preds = %37
  %41 = tail call i32 @rb_enc_mbclen(ptr noundef nonnull %38, ptr noundef %8, ptr noundef %1) #22
  %42 = sext i32 %41 to i64
  %43 = getelementptr i8, ptr %38, i64 %42
  br label %37, !llvm.loop !179

.critedge2:                                       ; preds = %37, %37
  store ptr %38, ptr %6, align 8
  %44 = load ptr, ptr %5, align 8, !tbaa !177
  %45 = load i8, ptr %44, align 1, !tbaa !19
  %.not39 = icmp eq i8 %45, 0
  %.not42 = icmp eq i8 %39, 0
  br i1 %.not39, label %51, label %46

46:                                               ; preds = %.critedge2
  br i1 %.not42, label %52, label %47

47:                                               ; preds = %46
  %48 = getelementptr i8, ptr %44, i64 1
  store ptr %48, ptr %5, align 8, !tbaa !177
  %49 = getelementptr i8, ptr %38, i64 1
  br label %.backedge

.backedge:                                        ; preds = %47, %65
  %50 = phi ptr [ %48, %47 ], [ %.132, %65 ]
  %storemerge = phi ptr [ %49, %47 ], [ %66, %65 ]
  %.0.be = phi ptr [ %.1, %47 ], [ %66, %65 ]
  store ptr %storemerge, ptr %6, align 8, !tbaa !177
  br label %.preheader47

51:                                               ; preds = %.critedge2
  br i1 %.not42, label %.loopexit, label %52

52:                                               ; preds = %46, %51, %34
  %53 = icmp ne ptr %.132, null
  %54 = icmp ne ptr %.1, null
  %or.cond = select i1 %53, i1 %54, i1 false
  br i1 %or.cond, label %55, label %.loopexit

55:                                               ; preds = %52
  br i1 %.not, label %56, label %.preheader68

56:                                               ; preds = %55
  %57 = load i8, ptr %.1, align 1, !tbaa !19
  %58 = icmp eq i8 %57, 46
  br i1 %58, label %.loopexit, label %.preheader68

.preheader68:                                     ; preds = %56, %55
  br label %59

59:                                               ; preds = %.preheader68, %61
  %.2 = phi ptr [ %64, %61 ], [ %.1, %.preheader68 ]
  %60 = load i8, ptr %.2, align 1, !tbaa !19
  switch i8 %60, label %61 [
    i8 0, label %.loopexit
    i8 47, label %65
  ]

61:                                               ; preds = %59
  %62 = tail call i32 @rb_enc_mbclen(ptr noundef nonnull %.2, ptr noundef %8, ptr noundef %1) #22
  %63 = sext i32 %62 to i64
  %64 = getelementptr i8, ptr %.2, i64 %63
  br label %59, !llvm.loop !180

65:                                               ; preds = %59
  store ptr %.132, ptr %5, align 8, !tbaa !177
  %66 = getelementptr i8, ptr %.2, i64 1
  br label %.backedge

67:                                               ; preds = %4
  %68 = call fastcc i32 @fnmatch_helper(ptr noundef %5, ptr noundef %6, i32 noundef %3, ptr noundef %1)
  br label %.loopexit

.loopexit:                                        ; preds = %52, %56, %51, %59, %67
  %.033 = phi i32 [ %68, %67 ], [ 1, %59 ], [ 1, %52 ], [ 1, %56 ], [ 0, %51 ]
  call void @llvm.lifetime.end.p0(i64 8, ptr nonnull %6) #22
  call void @llvm.lifetime.end.p0(i64 8, ptr nonnull %5) #22
  ret i32 %.033
}